target datalayout = "e-m:e-p270:32:32-p271:32:32-p272:64:64-i64:64-i128:128-f80:128-n8:16:32:64-S128"
target triple = "x86_64-pc-linux-gnu"

%struct.timeval = type { i64, i64 }

@.str.12 = private unnamed_addr constant [3 x i8] c"Oi\00", align 1
@PyExc_ValueError = external global ptr, align 8
@.str.13 = private unnamed_addr constant [17 x i8] c"invalid rounding\00", align 1
@.str.15 = private unnamed_addr constant [3 x i8] c"Nl\00", align 1

; Function Attrs: nounwind uwtable
define internal i32 @check_time_rounding(i32 noundef %0) #0 {
  %2 = alloca i32, align 4
  %3 = alloca i32, align 4
  store i32 %0, ptr %3, align 4, !tbaa !8
  %4 = load i32, ptr %3, align 4, !tbaa !8
  %5 = icmp ne i32 %4, 0
  br i1 %5, label %6, label %17

6:                                                ; preds = %1
  %7 = load i32, ptr %3, align 4, !tbaa !8
  %8 = icmp ne i32 %7, 1
  br i1 %8, label %9, label %17

9:                                                ; preds = %6
  %10 = load i32, ptr %3, align 4, !tbaa !8
  %11 = icmp ne i32 %10, 2
  br i1 %11, label %12, label %17

12:                                               ; preds = %9
  %13 = load i32, ptr %3, align 4, !tbaa !8
  %14 = icmp ne i32 %13, 3
  br i1 %14, label %15, label %17

15:                                               ; preds = %12
  %16 = load ptr, ptr @PyExc_ValueError, align 8, !tbaa !3
  call void @PyErr_SetString(ptr noundef %16, ptr noundef @.str.13)
  store i32 -1, ptr %2, align 4
  br label %18

17:                                               ; preds = %12, %9, %6, %1
  store i32 0, ptr %2, align 4
  br label %18

18:                                               ; preds = %17, %15
  %19 = load i32, ptr %2, align 4
  ret i32 %19
}

; Function Attrs: nounwind uwtable
define internal ptr @test_PyTime_AsTimeval_clamp(ptr noundef %0, ptr noundef %1) #0 {
  %3 = alloca ptr, align 8
  %4 = alloca ptr, align 8
  %5 = alloca ptr, align 8
  %6 = alloca ptr, align 8
  %7 = alloca i32, align 4
  %8 = alloca i32, align 4
  %9 = alloca i64, align 8
  %10 = alloca %struct.timeval, align 8
  %11 = alloca ptr, align 8
  store ptr %0, ptr %4, align 8, !tbaa !3
  store ptr %1, ptr %5, align 8, !tbaa !3
  call void @llvm.lifetime.start.p0(i64 8, ptr %6) #3
  call void @llvm.lifetime.start.p0(i64 4, ptr %7) #3
  %12 = load ptr, ptr %5, align 8, !tbaa !3
  %13 = call i32 (ptr, ptr, ...) @PyArg_ParseTuple(ptr noundef %12, ptr noundef @.str.12, ptr noundef %6, ptr noundef %7)
  %14 = icmp ne i32 %13, 0
  br i1 %14, label %16, label %15

15:                                               ; preds = %2
  store ptr null, ptr %3, align 8
  store i32 1, ptr %8, align 4
  br label %42

16:                                               ; preds = %2
  %17 = load i32, ptr %7, align 4, !tbaa !8
  %18 = call i32 @check_time_rounding(i32 noundef %17)
  %19 = icmp slt i32 %18, 0
  br i1 %19, label %20, label %21

20:                                               ; preds = %16
  store ptr null, ptr %3, align 8
  store i32 1, ptr %8, align 4
  br label %42

21:                                               ; preds = %16
  call void @llvm.lifetime.start.p0(i64 8, ptr %9) #3
  %22 = load ptr, ptr %6, align 8, !tbaa !3
  %23 = call i32 @_PyTime_FromLong(ptr noundef %9, ptr noundef %22)
  %24 = icmp slt i32 %23, 0
  br i1 %24, label %25, label %26

25:                                               ; preds = %21
  store ptr null, ptr %3, align 8
  store i32 1, ptr %8, align 4
  br label %41

26:                                               ; preds = %21
  call void @llvm.lifetime.start.p0(i64 16, ptr %10) #3
  %27 = load i64, ptr %9, align 8, !tbaa !10
  %28 = load i32, ptr %7, align 4, !tbaa !8
  call void @_PyTime_AsTimeval_clamp(i64 noundef %27, ptr noundef %10, i32 noundef %28)
  call void @llvm.lifetime.start.p0(i64 8, ptr %11) #3
  %29 = getelementptr inbounds nuw %struct.timeval, ptr %10, i32 0, i32 0
  %30 = load i64, ptr %29, align 8, !tbaa !15
  %31 = call ptr @PyLong_FromLongLong(i64 noundef %30)
  store ptr %31, ptr %11, align 8, !tbaa !3
  %32 = load ptr, ptr %11, align 8, !tbaa !3
  %33 = icmp eq ptr %32, null
  br i1 %33, label %34, label %35

34:                                               ; preds = %26
  store ptr null, ptr %3, align 8
  store i32 1, ptr %8, align 4
  br label %40

35:                                               ; preds = %26
  %36 = load ptr, ptr %11, align 8, !tbaa !3
  %37 = getelementptr inbounds nuw %struct.timeval, ptr %10, i32 0, i32 1
  %38 = load i64, ptr %37, align 8, !tbaa !17
  %39 = call ptr (ptr, ...) @Py_BuildValue(ptr noundef @.str.15, ptr noundef %36, i64 noundef %38)
  store ptr %39, ptr %3, align 8
  store i32 1, ptr %8, align 4
  br label %40

40:                                               ; preds = %35, %34
  call void @llvm.lifetime.end.p0(i64 8, ptr %11) #3
  call void @llvm.lifetime.end.p0(i64 16, ptr %10) #3
  br label %41

41:                                               ; preds = %40, %25
  call void @llvm.lifetime.end.p0(i64 8, ptr %9) #3
  br label %42

42:                                               ; preds = %41, %20, %15
  call void @llvm.lifetime.end.p0(i64 4, ptr %7) #3
  call void @llvm.lifetime.end.p0(i64 8, ptr %6) #3
  %43 = load ptr, ptr %3, align 8
  ret ptr %43
}