; Function Attrs: nounwind uwtable
define internal ptr @test_PyTime_AsTimeval_clamp(ptr readnone captures(none) %0, ptr noundef %1) #0 {
  %3 = alloca ptr, align 8
  %4 = alloca i32, align 4
  %5 = alloca i64, align 8
  %6 = alloca %struct.timeval, align 8
  call void @llvm.lifetime.start.p0(i64 8, ptr nonnull %3) #3
  call void @llvm.lifetime.start.p0(i64 4, ptr nonnull %4) #3
  %7 = call i32 (ptr, ptr, ...) @PyArg_ParseTuple(ptr noundef %1, ptr noundef nonnull @.str.12, ptr noundef nonnull %3, ptr noundef nonnull %4) #3
  %.not = icmp eq i32 %7, 0
  br i1 %.not, label %26, label %8

8:                                                ; preds = %2
  %9 = load i32, ptr %4, align 4, !tbaa !8
  %or.cond5.i = icmp ugt i32 %9, 3
  br i1 %or.cond5.i, label %check_time_rounding.exit.thread, label %check_time_rounding.exit

check_time_rounding.exit.thread:                  ; preds = %8
  %10 = load ptr, ptr @PyExc_ValueError, align 8, !tbaa !3
  call void @PyErr_SetString(ptr noundef %10, ptr noundef nonnull @.str.13) #3
  br label %26

check_time_rounding.exit:                         ; preds = %8
  call void @llvm.lifetime.start.p0(i64 8, ptr nonnull %5) #3
  %11 = load ptr, ptr %3, align 8, !tbaa !3
  %12 = call i32 @_PyTime_FromLong(ptr noundef nonnull %5, ptr noundef %11) #3
  %13 = icmp slt i32 %12, 0
  br i1 %13, label %25, label %14

14:                                               ; preds = %check_time_rounding.exit
  call void @llvm.lifetime.start.p0(i64 16, ptr nonnull %6) #3
  %15 = load i64, ptr %5, align 8, !tbaa !10
  %16 = load i32, ptr %4, align 4, !tbaa !8
  call void @_PyTime_AsTimeval_clamp(i64 noundef %15, ptr noundef nonnull %6, i32 noundef %16) #3
  %17 = load i64, ptr %6, align 8, !tbaa !15
  %18 = call ptr @PyLong_FromLongLong(i64 noundef %17) #3
  %19 = icmp eq ptr %18, null
  br i1 %19, label %24, label %20

20:                                               ; preds = %14
  %21 = getelementptr inbounds nuw i8, ptr %6, i64 8
  %22 = load i64, ptr %21, align 8, !tbaa !17
  %23 = call ptr (ptr, ...) @Py_BuildValue(ptr noundef nonnull @.str.15, ptr noundef nonnull %18, i64 noundef %22) #3
  br label %24

24:                                               ; preds = %14, %20
  %.2 = phi ptr [ %23, %20 ], [ null, %14 ]
  call void @llvm.lifetime.end.p0(i64 16, ptr nonnull %6) #3
  br label %25

25:                                               ; preds = %check_time_rounding.exit, %24
  %.1 = phi ptr [ %.2, %24 ], [ null, %check_time_rounding.exit ]
  call void @llvm.lifetime.end.p0(i64 8, ptr nonnull %5) #3
  br label %26

26:                                               ; preds = %check_time_rounding.exit.thread, %2, %25
  %.0 = phi ptr [ %.1, %25 ], [ null, %2 ], [ null, %check_time_rounding.exit.thread ]
  call void @llvm.lifetime.end.p0(i64 4, ptr nonnull %4) #3
  call void @llvm.lifetime.end.p0(i64 8, ptr nonnull %3) #3
  ret ptr %.0
}